; Function Attrs: nounwind uwtable
define internal fastcc range(i32 2, 6) i32 @exec_command_timing(ptr noundef %0, i1 noundef zeroext %1) unnamed_addr #0 {
  %3 = tail call ptr @psql_scan_slash_option(ptr noundef %0, i32 noundef 0, ptr noundef null, i1 noundef zeroext false) #16
  %.not = icmp eq ptr %3, null
  br i1 %1, label %4, label %18

4:                                                ; preds = %2
  br i1 %.not, label %8, label %5

5:                                                ; preds = %4
  %6 = tail call zeroext i1 @ParseVariableBool(ptr noundef nonnull %3, ptr noundef nonnull @.str.273, ptr noundef nonnull getelementptr inbounds nuw (i8, ptr @pset, i64 368)) #16
  %7 = select i1 %6, i32 2, i32 5
  br label %11

8:                                                ; preds = %4
  %9 = load i8, ptr getelementptr inbounds nuw (i8, ptr @pset, i64 368), align 8, !range !4, !noundef !5
  %10 = xor i8 %9, 1
  store i8 %10, ptr getelementptr inbounds nuw (i8, ptr @pset, i64 368), align 8
  br label %11

11:                                               ; preds = %8, %5
  %.0 = phi i32 [ %7, %5 ], [ 2, %8 ]
  %12 = load i8, ptr getelementptr inbounds nuw (i8, ptr @pset, i64 402), align 2, !range !4, !noundef !5
  %13 = trunc nuw i8 %12 to i1
  br i1 %13, label %17, label %.sink.split

.sink.split:                                      ; preds = %11
  %14 = load i8, ptr getelementptr inbounds nuw (i8, ptr @pset, i64 368), align 8, !range !4, !noundef !5
  %15 = trunc nuw i8 %14 to i1
  %.str.274..str.275 = select i1 %15, ptr @.str.274, ptr @.str.275
  %16 = tail call i32 @puts(ptr noundef nonnull dereferenceable(1) %.str.274..str.275)
  br label %17

17:                                               ; preds = %.sink.split, %11
  tail call void @free(ptr noundef %3) #16
  br label %ignore_slash_options.exit

18:                                               ; preds = %2
  br i1 %.not, label %ignore_slash_options.exit, label %.lr.ph.i

.lr.ph.i:                                         ; preds = %18, %.lr.ph.i
  %19 = phi ptr [ %20, %.lr.ph.i ], [ %3, %18 ]
  tail call void @free(ptr noundef nonnull %19) #16
  %20 = tail call ptr @psql_scan_slash_option(ptr noundef %0, i32 noundef 0, ptr noundef null, i1 noundef zeroext false) #16
  %.not.i = icmp eq ptr %20, null
  br i1 %.not.i, label %ignore_slash_options.exit, label %.lr.ph.i, !llvm.loop !10

ignore_slash_options.exit:                        ; preds = %.lr.ph.i, %18, %17
  %.1 = phi i32 [ %.0, %17 ], [ 2, %18 ], [ 2, %.lr.ph.i ]
  ret i32 %.1
}